(dp1
S'docs'
p2
(dp3
S'doc:views/pattern-library/sass/components.md|jinja|pandoc'
p4
(dp5
S'filters-data'
p6
(lp7
(S'generic'
p8
S'views/pattern-library/sass/components.md|jinja'
p9
S'.md'
p10
S'5f94fd44996d0e10099c4dee062a8c77-001-jinja'
p11
(dp12
S'help'
p13
S'Data type representing generic binary or text-based data in a single blob.'
p14
sS'title'
p15
NsS'storage-type'
p16
g8
sS'shortcut'
p17
NsS'canonical-name'
p18
S'views/pattern-library/sass/components.md'
p19
sS'canonical-output'
p20
I01
sS'output-name'
p21
NsS'aliases'
p22
(lp23
g8
astp24
a(g8
S'views/pattern-library/sass/components.md|jinja|pandoc'
p25
S'.html'
p26
S'5f94fd44996d0e10099c4dee062a8c77-002-jinja-pandoc'
p27
(dp28
g13
g14
sg15
Nsg16
g8
sg17
Nsg18
S'views/pattern-library/sass/components.html'
p29
sg20
I01
sg21
Nsg22
g23
stp30
asS'output-data'
p31
(g8
g25
g26
g27
(dp32
g13
g14
sg15
Nsg16
g8
sg17
Nsg18
g29
sg20
I01
sg21
Nsg22
g23
stp33
sg15
S'Components'
p34
sS'finish_time'
p35
F1420332523.682085
sS'start_time'
p36
F1420332523.5526681
sS'input-data'
p37
(g8
S'views/pattern-library/sass/components.md'
p38
g10
S'5f94fd44996d0e10099c4dee062a8c77-000'
p39
(dp40
g13
g14
sg15
Nsg16
g8
sg17
Nsg18
g38
sg20
Nsg21
Nsg22
g23
stp41
sS'state'
p42
S'running'
p43
sS'elapsed'
p44
F0.12941694259643555
ssS'doc:views/docs/javascript/file-folder-naming.md|jinja|pandoc'
p45
(dp46
g6
(lp47
(g8
S'views/docs/javascript/file-folder-naming.md|jinja'
p48
S'.md'
p49
S'991c77a07cd7bf52aa264050e9df04e6-001-jinja'
p50
(dp51
g13
g14
sg15
Nsg16
g8
sg17
Nsg18
S'views/docs/javascript/file-folder-naming.md'
p52
sg20
I01
sg21
Nsg22
g23
stp53
a(g8
S'views/docs/javascript/file-folder-naming.md|jinja|pandoc'
p54
g26
S'991c77a07cd7bf52aa264050e9df04e6-002-jinja-pandoc'
p55
(dp56
g13
g14
sg15
Nsg16
g8
sg17
Nsg18
S'views/docs/javascript/file-folder-naming.html'
p57
sg20
I01
sg21
Nsg22
g23
stp58
asg31
(g8
g54
g26
g55
(dp59
g13
g14
sg15
Nsg16
g8
sg17
Nsg18
g57
sg20
I01
sg21
Nsg22
g23
stp60
sg15
S'File Folder Naming'
p61
sg35
F1420332524.4180341
sg36
F1420332524.341965
sg37
(g8
S'views/docs/javascript/file-folder-naming.md'
p62
g49
S'991c77a07cd7bf52aa264050e9df04e6-000'
p63
(dp64
g13
g14
sg15
Nsg16
g8
sg17
Nsg18
g62
sg20
Nsg21
Nsg22
g23
stp65
sg42
g43
sg44
F0.076069116592407227
ssS'doc:views/docs/stylesheetTesting.md|jinja|pandoc'
p66
(dp67
g6
(lp68
(g8
S'views/docs/stylesheetTesting.md|jinja'
p69
S'.md'
p70
S'd7e8be9e815d8df57a4d91fe97d0a5e0-001-jinja'
p71
(dp72
g13
g14
sg15
Nsg16
g8
sg17
Nsg18
S'views/docs/stylesheetTesting.md'
p73
sg20
I01
sg21
Nsg22
g23
stp74
a(g8
S'views/docs/stylesheetTesting.md|jinja|pandoc'
p75
g26
S'd7e8be9e815d8df57a4d91fe97d0a5e0-002-jinja-pandoc'
p76
(dp77
g13
g14
sg15
Nsg16
g8
sg17
Nsg18
S'views/docs/stylesheetTesting.html'
p78
sg20
I01
sg21
Nsg22
g23
stp79
asg31
(g8
g75
g26
g76
(dp80
g13
g14
sg15
Nsg16
g8
sg17
Nsg18
g78
sg20
I01
sg21
Nsg22
g23
stp81
sg15
S'Stylesheet Testing'
p82
sg35
F1420332525.815383
sg36
F1420332525.7360859
sg37
(g8
S'views/docs/stylesheetTesting.md'
p83
g70
S'd7e8be9e815d8df57a4d91fe97d0a5e0-000'
p84
(dp85
g13
g14
sg15
Nsg16
g8
sg17
Nsg18
g83
sg20
Nsg21
Nsg22
g23
stp86
sg42
g43
sg44
F0.079297065734863281
ssS'doc:views/pattern-library/sass/objects.md|jinja|pandoc'
p87
(dp88
g6
(lp89
(g8
S'views/pattern-library/sass/objects.md|jinja'
p90
S'.md'
p91
S'26d9e39731721e488e0fc2ddded4b603-001-jinja'
p92
(dp93
g13
g14
sg15
Nsg16
g8
sg17
Nsg18
S'views/pattern-library/sass/objects.md'
p94
sg20
I01
sg21
Nsg22
g23
stp95
a(g8
S'views/pattern-library/sass/objects.md|jinja|pandoc'
p96
g26
S'26d9e39731721e488e0fc2ddded4b603-002-jinja-pandoc'
p97
(dp98
g13
g14
sg15
Nsg16
g8
sg17
Nsg18
S'views/pattern-library/sass/objects.html'
p99
sg20
I01
sg21
Nsg22
g23
stp100
asg31
(g8
g96
g26
g97
(dp101
g13
g14
sg15
Nsg16
g8
sg17
Nsg18
g99
sg20
I01
sg21
Nsg22
g23
stp102
sg15
S'Objects'
p103
sg35
F1420332525.0266459
sg36
F1420332524.9496429
sg37
(g8
S'views/pattern-library/sass/objects.md'
p104
g91
S'26d9e39731721e488e0fc2ddded4b603-000'
p105
(dp106
g13
g14
sg15
Nsg16
g8
sg17
Nsg18
g104
sg20
Nsg21
Nsg22
g23
stp107
sg42
g43
sg44
F0.077003002166748047
ssS'doc:views/docs/archetypeModules.md|jinja|pandoc'
p108
(dp109
g6
(lp110
(g8
S'views/docs/archetypeModules.md|jinja'
p111
S'.md'
p112
S'837f9cbb6bff6652c91b93af16aae04d-001-jinja'
p113
(dp114
g13
g14
sg15
Nsg16
g8
sg17
Nsg18
S'views/docs/archetypeModules.md'
p115
sg20
I01
sg21
Nsg22
g23
stp116
a(g8
S'views/docs/archetypeModules.md|jinja|pandoc'
p117
g26
S'837f9cbb6bff6652c91b93af16aae04d-002-jinja-pandoc'
p118
(dp119
g13
g14
sg15
Nsg16
g8
sg17
Nsg18
S'views/docs/archetypeModules.html'
p120
sg20
I01
sg21
Nsg22
g23
stp121
asg31
(g8
g117
g26
g118
(dp122
g13
g14
sg15
Nsg16
g8
sg17
Nsg18
g120
sg20
I01
sg21
Nsg22
g23
stp123
sg15
S'Archetype Modules'
p124
sg35
F1420332524.0014269
sg36
F1420332523.921982
sg37
(g8
S'views/docs/archetypeModules.md'
p125
g112
S'837f9cbb6bff6652c91b93af16aae04d-000'
p126
(dp127
g13
g14
sg15
Nsg16
g8
sg17
Nsg18
g125
sg20
Nsg21
Nsg22
g23
stp128
sg42
g43
sg44
F0.07944488525390625
ssS'doc:views/docs/tests.md|jinja|pandoc'
p129
(dp130
g6
(lp131
(g8
S'views/docs/tests.md|jinja'
p132
S'.md'
p133
S'a4899d6c6b479444e5cee8f0eefd34c3-001-jinja'
p134
(dp135
g13
g14
sg15
Nsg16
g8
sg17
Nsg18
S'views/docs/tests.md'
p136
sg20
I01
sg21
Nsg22
g23
stp137
a(g8
S'views/docs/tests.md|jinja|pandoc'
p138
g26
S'a4899d6c6b479444e5cee8f0eefd34c3-002-jinja-pandoc'
p139
(dp140
g13
g14
sg15
Nsg16
g8
sg17
Nsg18
S'views/docs/tests.html'
p141
sg20
I01
sg21
Nsg22
g23
stp142
asg31
(g8
g138
g26
g139
(dp143
g13
g14
sg15
Nsg16
g8
sg17
Nsg18
g141
sg20
I01
sg21
Nsg22
g23
stp144
sg15
S'Tests'
p145
sg35
F1420332523.8419769
sg36
F1420332523.7637191
sg37
(g8
S'views/docs/tests.md'
p146
g133
S'a4899d6c6b479444e5cee8f0eefd34c3-000'
p147
(dp148
g13
g14
sg15
Nsg16
g8
sg17
Nsg18
g146
sg20
Nsg21
Nsg22
g23
stp149
sg42
g43
sg44
F0.07825779914855957
ssS'doc:views/docs/pe.md|jinja|pandoc'
p150
(dp151
g6
(lp152
(g8
S'views/docs/pe.md|jinja'
p153
S'.md'
p154
S'505300235051b54694f83075120665c2-001-jinja'
p155
(dp156
g13
g14
sg15
Nsg16
g8
sg17
Nsg18
S'views/docs/pe.md'
p157
sg20
I01
sg21
Nsg22
g23
stp158
a(g8
S'views/docs/pe.md|jinja|pandoc'
p159
g26
S'505300235051b54694f83075120665c2-002-jinja-pandoc'
p160
(dp161
g13
g14
sg15
Nsg16
g8
sg17
Nsg18
S'views/docs/pe.html'
p162
sg20
I01
sg21
Nsg22
g23
stp163
asg31
(g8
g159
g26
g160
(dp164
g13
g14
sg15
Nsg16
g8
sg17
Nsg18
g162
sg20
I01
sg21
Nsg22
g23
stp165
sg15
S'Pe'
p166
sg35
F1420332525.9776621
sg36
F1420332525.894943
sg37
(g8
S'views/docs/pe.md'
p167
g154
S'505300235051b54694f83075120665c2-000'
p168
(dp169
g13
g14
sg15
Nsg16
g8
sg17
Nsg18
g167
sg20
Nsg21
Nsg22
g23
stp170
sg42
g43
sg44
F0.082719087600708008
ssS'doc:views/docs/javascript/troubleshooting.md|jinja|pandoc'
p171
(dp172
g6
(lp173
(g8
S'views/docs/javascript/troubleshooting.md|jinja'
p174
S'.md'
p175
S'c778211e407185952ee8722570aba0eb-001-jinja'
p176
(dp177
g13
g14
sg15
Nsg16
g8
sg17
Nsg18
S'views/docs/javascript/troubleshooting.md'
p178
sg20
I01
sg21
Nsg22
g23
stp179
a(g8
S'views/docs/javascript/troubleshooting.md|jinja|pandoc'
p180
g26
S'c778211e407185952ee8722570aba0eb-002-jinja-pandoc'
p181
(dp182
g13
g14
sg15
Nsg16
g8
sg17
Nsg18
S'views/docs/javascript/troubleshooting.html'
p183
sg20
I01
sg21
Nsg22
g23
stp184
asg31
(g8
g180
g26
g181
(dp185
g13
g14
sg15
Nsg16
g8
sg17
Nsg18
g183
sg20
I01
sg21
Nsg22
g23
stp186
sg15
S'Troubleshooting'
p187
sg35
F1420332525.580447
sg36
F1420332525.5035031
sg37
(g8
S'views/docs/javascript/troubleshooting.md'
p188
g175
S'c778211e407185952ee8722570aba0eb-000'
p189
(dp190
g13
g14
sg15
Nsg16
g8
sg17
Nsg18
g188
sg20
Nsg21
Nsg22
g23
stp191
sg42
g43
sg44
F0.076943874359130859
ssS'doc:views/pattern-library/sass/components/README.md|jinja|pandoc'
p192
(dp193
g6
(lp194
(g8
S'views/pattern-library/sass/components/README.md|jinja'
p195
S'.md'
p196
S'66983e87a888075694646055618b0baa-001-jinja'
p197
(dp198
g13
g14
sg15
Nsg16
g8
sg17
Nsg18
S'views/pattern-library/sass/components/README.md'
p199
sg20
I01
sg21
Nsg22
g23
stp200
a(g8
S'views/pattern-library/sass/components/README.md|jinja|pandoc'
p201
g26
S'66983e87a888075694646055618b0baa-002-jinja-pandoc'
p202
(dp203
g13
g14
sg15
Nsg16
g8
sg17
Nsg18
S'views/pattern-library/sass/components/README.html'
p204
sg20
I01
sg21
Nsg22
g23
stp205
asg31
(g8
g201
g26
g202
(dp206
g13
g14
sg15
Nsg16
g8
sg17
Nsg18
g204
sg20
I01
sg21
Nsg22
g23
stp207
sg15
S'Readme'
p208
sg35
F1420332525.184973
sg36
F1420332525.111887
sg37
(g8
S'views/pattern-library/sass/components/README.md'
p209
g196
S'66983e87a888075694646055618b0baa-000'
p210
(dp211
g13
g14
sg15
Nsg16
g8
sg17
Nsg18
g209
sg20
Nsg21
Nsg22
g23
stp212
sg42
g43
sg44
F0.073086023330688477
ssS'doc:views/docs/designPrinciples.md|jinja|pandoc'
p213
(dp214
g6
(lp215
(g8
S'views/docs/designPrinciples.md|jinja'
p216
S'.md'
p217
S'6da054190e86b12be070810a5d56ece4-001-jinja'
p218
(dp219
g13
g14
sg15
Nsg16
g8
sg17
Nsg18
S'views/docs/designPrinciples.md'
p220
sg20
I01
sg21
Nsg22
g23
stp221
a(g8
S'views/docs/designPrinciples.md|jinja|pandoc'
p222
g26
S'6da054190e86b12be070810a5d56ece4-002-jinja-pandoc'
p223
(dp224
g13
g14
sg15
Nsg16
g8
sg17
Nsg18
S'views/docs/designPrinciples.html'
p225
sg20
I01
sg21
Nsg22
g23
stp226
asg31
(g8
g222
g26
g223
(dp227
g13
g14
sg15
Nsg16
g8
sg17
Nsg18
g225
sg20
I01
sg21
Nsg22
g23
stp228
sg15
S'Design Principles'
p229
sg35
F1420332524.681222
sg36
F1420332524.5748079
sg37
(g8
S'views/docs/designPrinciples.md'
p230
g217
S'6da054190e86b12be070810a5d56ece4-000'
p231
(dp232
g13
g14
sg15
Nsg16
g8
sg17
Nsg18
g230
sg20
Nsg21
Nsg22
g23
stp233
sg42
g43
sg44
F0.1064140796661377
ssS'doc:views/docs/addendum.md|jinja|pandoc'
p234
(dp235
g6
(lp236
(g8
S'views/docs/addendum.md|jinja'
p237
S'.md'
p238
S'c266d44ddf09d1a578e39caf97c60379-001-jinja'
p239
(dp240
g13
g14
sg15
Nsg16
g8
sg17
Nsg18
S'views/docs/addendum.md'
p241
sg20
I01
sg21
Nsg22
g23
stp242
a(g8
S'views/docs/addendum.md|jinja|pandoc'
p243
g26
S'c266d44ddf09d1a578e39caf97c60379-002-jinja-pandoc'
p244
(dp245
g13
g14
sg15
Nsg16
g8
sg17
Nsg18
S'views/docs/addendum.html'
p246
sg20
I01
sg21
Nsg22
g23
stp247
asg31
(g8
g243
g26
g244
(dp248
g13
g14
sg15
Nsg16
g8
sg17
Nsg18
g246
sg20
I01
sg21
Nsg22
g23
stp249
sg15
S'Addendum'
p250
sg35
F1420332526.0644701
sg36
F1420332525.9783759
sg37
(g8
S'views/docs/addendum.md'
p251
g238
S'c266d44ddf09d1a578e39caf97c60379-000'
p252
(dp253
g13
g14
sg15
Nsg16
g8
sg17
Nsg18
g251
sg20
Nsg21
Nsg22
g23
stp254
sg42
g43
sg44
F0.086094141006469727
ssS'doc:views/pattern-library/sass/objects/README.md|jinja|pandoc'
p255
(dp256
g6
(lp257
(g8
S'views/pattern-library/sass/objects/README.md|jinja'
p258
S'.md'
p259
S'eeee09656af69602d6d134e1b7c5d639-001-jinja'
p260
(dp261
g13
g14
sg15
Nsg16
g8
sg17
Nsg18
S'views/pattern-library/sass/objects/README.md'
p262
sg20
I01
sg21
Nsg22
g23
stp263
a(g8
S'views/pattern-library/sass/objects/README.md|jinja|pandoc'
p264
g26
S'eeee09656af69602d6d134e1b7c5d639-002-jinja-pandoc'
p265
(dp266
g13
g14
sg15
Nsg16
g8
sg17
Nsg18
S'views/pattern-library/sass/objects/README.html'
p267
sg20
I01
sg21
Nsg22
g23
stp268
asg31
(g8
g264
g26
g265
(dp269
g13
g14
sg15
Nsg16
g8
sg17
Nsg18
g267
sg20
I01
sg21
Nsg22
g23
stp270
sg15
S'Readme'
p271
sg35
F1420332524.341264
sg36
F1420332524.271009
sg37
(g8
S'views/pattern-library/sass/objects/README.md'
p272
g259
S'eeee09656af69602d6d134e1b7c5d639-000'
p273
(dp274
g13
g14
sg15
Nsg16
g8
sg17
Nsg18
g272
sg20
Nsg21
Nsg22
g23
stp275
sg42
g43
sg44
F0.070255041122436523
ssS'doc:views/docs/frontendOps.md|jinja|pandoc'
p276
(dp277
g6
(lp278
(g8
S'views/docs/frontendOps.md|jinja'
p279
S'.md'
p280
S'82cc67fbbfea487225d452a6b4aa97e6-001-jinja'
p281
(dp282
g13
g14
sg15
Nsg16
g8
sg17
Nsg18
S'views/docs/frontendOps.md'
p283
sg20
I01
sg21
Nsg22
g23
stp284
a(g8
S'views/docs/frontendOps.md|jinja|pandoc'
p285
g26
S'82cc67fbbfea487225d452a6b4aa97e6-002-jinja-pandoc'
p286
(dp287
g13
g14
sg15
Nsg16
g8
sg17
Nsg18
S'views/docs/frontendOps.html'
p288
sg20
I01
sg21
Nsg22
g23
stp289
asg31
(g8
g285
g26
g286
(dp290
g13
g14
sg15
Nsg16
g8
sg17
Nsg18
g288
sg20
I01
sg21
Nsg22
g23
stp291
sg15
S'Frontend Ops'
p292
sg35
F1420332525.2666349
sg36
F1420332525.185653
sg37
(g8
S'views/docs/frontendOps.md'
p293
g280
S'82cc67fbbfea487225d452a6b4aa97e6-000'
p294
(dp295
g13
g14
sg15
Nsg16
g8
sg17
Nsg18
g293
sg20
Nsg21
Nsg22
g23
stp296
sg42
g43
sg44
F0.080981969833374023
ssS'doc:views/docs/performanceTesting.md|jinja|pandoc'
p297
(dp298
g6
(lp299
(g8
S'views/docs/performanceTesting.md|jinja'
p300
S'.md'
p301
S'8f1bcc8d30d25348a29be970351a3e26-001-jinja'
p302
(dp303
g13
g14
sg15
Nsg16
g8
sg17
Nsg18
S'views/docs/performanceTesting.md'
p304
sg20
I01
sg21
Nsg22
g23
stp305
a(g8
S'views/docs/performanceTesting.md|jinja|pandoc'
p306
g26
S'8f1bcc8d30d25348a29be970351a3e26-002-jinja-pandoc'
p307
(dp308
g13
g14
sg15
Nsg16
g8
sg17
Nsg18
S'views/docs/performanceTesting.html'
p309
sg20
I01
sg21
Nsg22
g23
stp310
asg31
(g8
g306
g26
g307
(dp311
g13
g14
sg15
Nsg16
g8
sg17
Nsg18
g309
sg20
I01
sg21
Nsg22
g23
stp312
sg15
S'Performance Testing'
p313
sg35
F1420332524.4968679
sg36
F1420332524.4188659
sg37
(g8
S'views/docs/performanceTesting.md'
p314
g301
S'8f1bcc8d30d25348a29be970351a3e26-000'
p315
(dp316
g13
g14
sg15
Nsg16
g8
sg17
Nsg18
g314
sg20
Nsg21
Nsg22
g23
stp317
sg42
g43
sg44
F0.078001976013183594
ssS'doc:views/docs/stylesheetCodingStandard.md|jinja|pandoc'
p318
(dp319
g6
(lp320
(g8
S'views/docs/stylesheetCodingStandard.md|jinja'
p321
S'.md'
p322
S'cab4438aebdb640c54c6ba8c7e7dc95f-001-jinja'
p323
(dp324
g13
g14
sg15
Nsg16
g8
sg17
Nsg18
S'views/docs/stylesheetCodingStandard.md'
p325
sg20
I01
sg21
Nsg22
g23
stp326
a(g8
S'views/docs/stylesheetCodingStandard.md|jinja|pandoc'
p327
g26
S'cab4438aebdb640c54c6ba8c7e7dc95f-002-jinja-pandoc'
p328
(dp329
g13
g14
sg15
Nsg16
g8
sg17
Nsg18
S'views/docs/stylesheetCodingStandard.html'
p330
sg20
I01
sg21
Nsg22
g23
stp331
asg31
(g8
g327
g26
g328
(dp332
g13
g14
sg15
Nsg16
g8
sg17
Nsg18
g330
sg20
I01
sg21
Nsg22
g23
stp333
sg15
S'Stylesheet Coding Standard'
p334
sg35
F1420332524.7969699
sg36
F1420332524.682076
sg37
(g8
S'views/docs/stylesheetCodingStandard.md'
p335
g322
S'cab4438aebdb640c54c6ba8c7e7dc95f-000'
p336
(dp337
g13
g14
sg15
Nsg16
g8
sg17
Nsg18
g335
sg20
Nsg21
Nsg22
g23
stp338
sg42
g43
sg44
F0.11489391326904297
ssS'doc:views/docs/README.md|jinja|pandoc'
p339
(dp340
g6
(lp341
(g8
S'views/docs/README.md|jinja'
p342
S'.md'
p343
S'0430cfbe2f3ac82f9baeaf2775d20404-001-jinja'
p344
(dp345
g13
g14
sg15
Nsg16
g8
sg17
Nsg18
S'views/docs/README.md'
p346
sg20
I01
sg21
Nsg22
g23
stp347
a(g8
S'views/docs/README.md|jinja|pandoc'
p348
g26
S'0430cfbe2f3ac82f9baeaf2775d20404-002-jinja-pandoc'
p349
(dp350
g13
g14
sg15
Nsg16
g8
sg17
Nsg18
S'views/docs/README.html'
p351
sg20
I01
sg21
Nsg22
g23
stp352
asg31
(g8
g348
g26
g349
(dp353
g13
g14
sg15
Nsg16
g8
sg17
Nsg18
g351
sg20
I01
sg21
Nsg22
g23
stp354
sg15
S'Readme'
p355
sg35
F1420332524.5741861
sg36
F1420332524.4976139
sg37
(g8
S'views/docs/README.md'
p356
g343
S'0430cfbe2f3ac82f9baeaf2775d20404-000'
p357
(dp358
g13
g14
sg15
Nsg16
g8
sg17
Nsg18
g356
sg20
Nsg21
Nsg22
g23
stp359
sg42
g43
sg44
F0.076572179794311523
ssS'doc:views/pattern-library/sass/main.scss.md|jinja|pandoc'
p360
(dp361
g6
(lp362
(g8
S'views/pattern-library/sass/main.scss.md|jinja'
p363
S'.md'
p364
S'921241a8ce6d6fc433448e922a435851-001-jinja'
p365
(dp366
g13
g14
sg15
Nsg16
g8
sg17
Nsg18
S'views/pattern-library/sass/main.scss.md'
p367
sg20
I01
sg21
Nsg22
g23
stp368
a(g8
S'views/pattern-library/sass/main.scss.md|jinja|pandoc'
p369
g26
S'921241a8ce6d6fc433448e922a435851-002-jinja-pandoc'
p370
(dp371
g13
g14
sg15
Nsg16
g8
sg17
Nsg18
S'views/pattern-library/sass/main.scss.html'
p372
sg20
I01
sg21
Nsg22
g23
stp373
asg31
(g8
g369
g26
g370
(dp374
g13
g14
sg15
Nsg16
g8
sg17
Nsg18
g372
sg20
I01
sg21
Nsg22
g23
stp375
sg15
S'Main.Scss'
p376
sg35
F1420332524.948792
sg36
F1420332524.871804
sg37
(g8
S'views/pattern-library/sass/main.scss.md'
p377
g364
S'921241a8ce6d6fc433448e922a435851-000'
p378
(dp379
g13
g14
sg15
Nsg16
g8
sg17
Nsg18
g377
sg20
Nsg21
Nsg22
g23
stp380
sg42
g43
sg44
F0.076987981796264648
ssS'doc:views/docs/javascript/build-tools-process.md|jinja|pandoc'
p381
(dp382
g6
(lp383
(g8
S'views/docs/javascript/build-tools-process.md|jinja'
p384
S'.md'
p385
S'ca7ce80739aae89397b28017159f5671-001-jinja'
p386
(dp387
g13
g14
sg15
Nsg16
g8
sg17
Nsg18
S'views/docs/javascript/build-tools-process.md'
p388
sg20
I01
sg21
Nsg22
g23
stp389
a(g8
S'views/docs/javascript/build-tools-process.md|jinja|pandoc'
p390
g26
S'ca7ce80739aae89397b28017159f5671-002-jinja-pandoc'
p391
(dp392
g13
g14
sg15
Nsg16
g8
sg17
Nsg18
S'views/docs/javascript/build-tools-process.html'
p393
sg20
I01
sg21
Nsg22
g23
stp394
asg31
(g8
g390
g26
g391
(dp395
g13
g14
sg15
Nsg16
g8
sg17
Nsg18
g393
sg20
I01
sg21
Nsg22
g23
stp396
sg15
S'Build Tools Process'
p397
sg35
F1420332525.4283731
sg36
F1420332525.34114
sg37
(g8
S'views/docs/javascript/build-tools-process.md'
p398
g385
S'ca7ce80739aae89397b28017159f5671-000'
p399
(dp400
g13
g14
sg15
Nsg16
g8
sg17
Nsg18
g398
sg20
Nsg21
Nsg22
g23
stp401
sg42
g43
sg44
F0.087233066558837891
ssS'doc:views/docs/docs.md|jinja|pandoc'
p402
(dp403
g6
(lp404
(g8
S'views/docs/docs.md|jinja'
p405
S'.md'
p406
S'401b4bb1d64f59c777e1bf7b25842fd6-001-jinja'
p407
(dp408
g13
g14
sg15
Nsg16
g8
sg17
Nsg18
S'views/docs/docs.md'
p409
sg20
I01
sg21
Nsg22
g23
stp410
a(g8
S'views/docs/docs.md|jinja|pandoc'
p411
g26
S'401b4bb1d64f59c777e1bf7b25842fd6-002-jinja-pandoc'
p412
(dp413
g13
g14
sg15
Nsg16
g8
sg17
Nsg18
S'views/docs/docs.html'
p414
sg20
I01
sg21
Nsg22
g23
stp415
asg31
(g8
g411
g26
g412
(dp416
g13
g14
sg15
Nsg16
g8
sg17
Nsg18
g414
sg20
I01
sg21
Nsg22
g23
stp417
sg15
S'Docs'
p418
sg35
F1420332523.921339
sg36
F1420332523.842643
sg37
(g8
S'views/docs/docs.md'
p419
g406
S'401b4bb1d64f59c777e1bf7b25842fd6-000'
p420
(dp421
g13
g14
sg15
Nsg16
g8
sg17
Nsg18
g419
sg20
Nsg21
Nsg22
g23
stp422
sg42
g43
sg44
F0.078696012496948242
ssS'doc:views/pattern-library/sass/layout/layout.md|jinja|pandoc'
p423
(dp424
g6
(lp425
(g8
S'views/pattern-library/sass/layout/layout.md|jinja'
p426
S'.md'
p427
S'df28fd3b2e5882f84b50e55e19d271e4-001-jinja'
p428
(dp429
g13
g14
sg15
Nsg16
g8
sg17
Nsg18
S'views/pattern-library/sass/layout/layout.md'
p430
sg20
I01
sg21
Nsg22
g23
stp431
a(g8
S'views/pattern-library/sass/layout/layout.md|jinja|pandoc'
p432
g26
S'df28fd3b2e5882f84b50e55e19d271e4-002-jinja-pandoc'
p433
(dp434
g13
g14
sg15
Nsg16
g8
sg17
Nsg18
S'views/pattern-library/sass/layout/layout.html'
p435
sg20
I01
sg21
Nsg22
g23
stp436
asg31
(g8
g432
g26
g433
(dp437
g13
g14
sg15
Nsg16
g8
sg17
Nsg18
g435
sg20
I01
sg21
Nsg22
g23
stp438
sg15
S'Layout'
p439
sg35
F1420332524.8711481
sg36
F1420332524.797713
sg37
(g8
S'views/pattern-library/sass/layout/layout.md'
p440
g427
S'df28fd3b2e5882f84b50e55e19d271e4-000'
p441
(dp442
g13
g14
sg15
Nsg16
g8
sg17
Nsg18
g440
sg20
Nsg21
Nsg22
g23
stp443
sg42
g43
sg44
F0.073435068130493164
ssS'doc:views/pattern-library/sass/index.md|jinja|pandoc'
p444
(dp445
g6
(lp446
(g8
S'views/pattern-library/sass/index.md|jinja'
p447
S'.md'
p448
S'b10f159827a2de71b23545f0ee4a7148-001-jinja'
p449
(dp450
g13
g14
sg15
Nsg16
g8
sg17
Nsg18
S'views/pattern-library/sass/index.md'
p451
sg20
I01
sg21
Nsg22
g23
stp452
a(g8
S'views/pattern-library/sass/index.md|jinja|pandoc'
p453
g26
S'b10f159827a2de71b23545f0ee4a7148-002-jinja-pandoc'
p454
(dp455
g13
g14
sg15
Nsg16
g8
sg17
Nsg18
S'views/pattern-library/sass/index.html'
p456
sg20
I01
sg21
Nsg22
g23
stp457
asg31
(g8
g453
g26
g454
(dp458
g13
g14
sg15
Nsg16
g8
sg17
Nsg18
g456
sg20
I01
sg21
Nsg22
g23
stp459
sg15
S'Sass'
p460
sg35
F1420332525.735198
sg36
F1420332525.6522789
sg37
(g8
S'views/pattern-library/sass/index.md'
p461
g448
S'b10f159827a2de71b23545f0ee4a7148-000'
p462
(dp463
g13
g14
sg15
Nsg16
g8
sg17
Nsg18
g461
sg20
Nsg21
Nsg22
g23
stp464
sg42
g43
sg44
F0.082919120788574219
ssS'doc:views/pattern-library/sass/colorpallet.md|jinja|pandoc'
p465
(dp466
g6
(lp467
(g8
S'views/pattern-library/sass/colorpallet.md|jinja'
p468
S'.md'
p469
S'e32704144f309b024017e0c2e3b392e8-001-jinja'
p470
(dp471
g13
g14
sg15
Nsg16
g8
sg17
Nsg18
S'views/pattern-library/sass/colorpallet.md'
p472
sg20
I01
sg21
Nsg22
g23
stp473
a(g8
S'views/pattern-library/sass/colorpallet.md|jinja|pandoc'
p474
g26
S'e32704144f309b024017e0c2e3b392e8-002-jinja-pandoc'
p475
(dp476
g13
g14
sg15
Nsg16
g8
sg17
Nsg18
S'views/pattern-library/sass/colorpallet.html'
p477
sg20
I01
sg21
Nsg22
g23
stp478
asg31
(g8
g474
g26
g475
(dp479
g13
g14
sg15
Nsg16
g8
sg17
Nsg18
g477
sg20
I01
sg21
Nsg22
g23
stp480
sg15
S'Colorpallet'
p481
sg35
F1420332524.0708849
sg36
F1420332524.002121
sg37
(g8
S'views/pattern-library/sass/colorpallet.md'
p482
g469
S'e32704144f309b024017e0c2e3b392e8-000'
p483
(dp484
g13
g14
sg15
Nsg16
g8
sg17
Nsg18
g482
sg20
Nsg21
Nsg22
g23
stp485
sg42
g43
sg44
F0.068763971328735352
ssS'doc:views/docs/javascript/angular-styleguide.md|jinja|pandoc'
p486
(dp487
g6
(lp488
(g8
S'views/docs/javascript/angular-styleguide.md|jinja'
p489
S'.md'
p490
S'87d232b52096fb3d25ef8cafb08997ce-001-jinja'
p491
(dp492
g13
g14
sg15
Nsg16
g8
sg17
Nsg18
S'views/docs/javascript/angular-styleguide.md'
p493
sg20
I01
sg21
Nsg22
g23
stp494
a(g8
S'views/docs/javascript/angular-styleguide.md|jinja|pandoc'
p495
g26
S'87d232b52096fb3d25ef8cafb08997ce-002-jinja-pandoc'
p496
(dp497
g13
g14
sg15
Nsg16
g8
sg17
Nsg18
S'views/docs/javascript/angular-styleguide.html'
p498
sg20
I01
sg21
Nsg22
g23
stp499
asg31
(g8
g495
g26
g496
(dp500
g13
g14
sg15
Nsg16
g8
sg17
Nsg18
g498
sg20
I01
sg21
Nsg22
g23
stp501
sg15
S'Angular Styleguide'
p502
sg35
F1420332525.5026391
sg36
F1420332525.4290199
sg37
(g8
S'views/docs/javascript/angular-styleguide.md'
p503
g490
S'87d232b52096fb3d25ef8cafb08997ce-000'
p504
(dp505
g13
g14
sg15
Nsg16
g8
sg17
Nsg18
g503
sg20
Nsg21
Nsg22
g23
stp506
sg42
g43
sg44
F0.07361912727355957
ssS'doc:views/docs/architecture.md|jinja|pandoc'
p507
(dp508
g6
(lp509
(g8
S'views/docs/architecture.md|jinja'
p510
S'.md'
p511
S'077ec4479482769e200aa65bea38ae3b-001-jinja'
p512
(dp513
g13
g14
sg15
Nsg16
g8
sg17
Nsg18
S'views/docs/architecture.md'
p514
sg20
I01
sg21
Nsg22
g23
stp515
a(g8
S'views/docs/architecture.md|jinja|pandoc'
p516
g26
S'077ec4479482769e200aa65bea38ae3b-002-jinja-pandoc'
p517
(dp518
g13
g14
sg15
Nsg16
g8
sg17
Nsg18
S'views/docs/architecture.html'
p519
sg20
I01
sg21
Nsg22
g23
stp520
asg31
(g8
g516
g26
g517
(dp521
g13
g14
sg15
Nsg16
g8
sg17
Nsg18
g519
sg20
I01
sg21
Nsg22
g23
stp522
sg15
S'Architecture'
p523
sg35
F1420332524.1972089
sg36
F1420332524.071713
sg37
(g8
S'views/docs/architecture.md'
p524
g511
S'077ec4479482769e200aa65bea38ae3b-000'
p525
(dp526
g13
g14
sg15
Nsg16
g8
sg17
Nsg18
g524
sg20
Nsg21
Nsg22
g23
stp527
sg42
g43
sg44
F0.12549591064453125
ssS'doc:views/docs/javascript/module-guide.md|jinja|pandoc'
p528
(dp529
g6
(lp530
(g8
S'views/docs/javascript/module-guide.md|jinja'
p531
S'.md'
p532
S'3596ce050301a776e6f0d232a930583c-001-jinja'
p533
(dp534
g13
g14
sg15
Nsg16
g8
sg17
Nsg18
S'views/docs/javascript/module-guide.md'
p535
sg20
I01
sg21
Nsg22
g23
stp536
a(g8
S'views/docs/javascript/module-guide.md|jinja|pandoc'
p537
g26
S'3596ce050301a776e6f0d232a930583c-002-jinja-pandoc'
p538
(dp539
g13
g14
sg15
Nsg16
g8
sg17
Nsg18
S'views/docs/javascript/module-guide.html'
p540
sg20
I01
sg21
Nsg22
g23
stp541
asg31
(g8
g537
g26
g538
(dp542
g13
g14
sg15
Nsg16
g8
sg17
Nsg18
g540
sg20
I01
sg21
Nsg22
g23
stp543
sg15
S'Module Guide'
p544
sg35
F1420332525.894212
sg36
F1420332525.8161261
sg37
(g8
S'views/docs/javascript/module-guide.md'
p545
g532
S'3596ce050301a776e6f0d232a930583c-000'
p546
(dp547
g13
g14
sg15
Nsg16
g8
sg17
Nsg18
g545
sg20
Nsg21
Nsg22
g23
stp548
sg42
g43
sg44
F0.078085899353027344
ssS'doc:views/pattern-library/sass/layout/breakpoints.md|jinja|pandoc'
p549
(dp550
g6
(lp551
(g8
S'views/pattern-library/sass/layout/breakpoints.md|jinja'
p552
S'.md'
p553
S'6f388d8ea6adcd16ae783a2c9c00be98-001-jinja'
p554
(dp555
g13
g14
sg15
Nsg16
g8
sg17
Nsg18
S'views/pattern-library/sass/layout/breakpoints.md'
p556
sg20
I01
sg21
Nsg22
g23
stp557
a(g8
S'views/pattern-library/sass/layout/breakpoints.md|jinja|pandoc'
p558
g26
S'6f388d8ea6adcd16ae783a2c9c00be98-002-jinja-pandoc'
p559
(dp560
g13
g14
sg15
Nsg16
g8
sg17
Nsg18
S'views/pattern-library/sass/layout/breakpoints.html'
p561
sg20
I01
sg21
Nsg22
g23
stp562
asg31
(g8
g558
g26
g559
(dp563
g13
g14
sg15
Nsg16
g8
sg17
Nsg18
g561
sg20
I01
sg21
Nsg22
g23
stp564
sg15
S'Breakpoints'
p565
sg35
F1420332524.270329
sg36
F1420332524.197871
sg37
(g8
S'views/pattern-library/sass/layout/breakpoints.md'
p566
g553
S'6f388d8ea6adcd16ae783a2c9c00be98-000'
p567
(dp568
g13
g14
sg15
Nsg16
g8
sg17
Nsg18
g566
sg20
Nsg21
Nsg22
g23
stp569
sg42
g43
sg44
F0.072458028793334961
ssS'doc:views/docs/test.md|jinja|pandoc'
p570
(dp571
g6
(lp572
(g8
S'views/docs/test.md|jinja'
p573
S'.md'
p574
S'60e1fbf2f545633e6348b1bb5160e97e-001-jinja'
p575
(dp576
g13
g14
sg15
Nsg16
g8
sg17
Nsg18
S'views/docs/test.md'
p577
sg20
I01
sg21
Nsg22
g23
stp578
a(g8
S'views/docs/test.md|jinja|pandoc'
p579
g26
S'60e1fbf2f545633e6348b1bb5160e97e-002-jinja-pandoc'
p580
(dp581
g13
g14
sg15
Nsg16
g8
sg17
Nsg18
S'views/docs/test.html'
p582
sg20
I01
sg21
Nsg22
g23
stp583
asg31
(g8
g579
g26
g580
(dp584
g13
g14
sg15
Nsg16
g8
sg17
Nsg18
g582
sg20
I01
sg21
Nsg22
g23
stp585
sg15
S'Test'
p586
sg35
F1420332525.651535
sg36
F1420332525.5810859
sg37
(g8
S'views/docs/test.md'
p587
g574
S'60e1fbf2f545633e6348b1bb5160e97e-000'
p588
(dp589
g13
g14
sg15
Nsg16
g8
sg17
Nsg18
g587
sg20
Nsg21
Nsg22
g23
stp590
sg42
g43
sg44
F0.070449113845825195
ssS'doc:views/pattern-library/sass/utilities.md|jinja|pandoc'
p591
(dp592
g6
(lp593
(g8
S'views/pattern-library/sass/utilities.md|jinja'
p594
S'.md'
p595
S'69a8e7c6d00b2ec673f99db63082c10a-001-jinja'
p596
(dp597
g13
g14
sg15
Nsg16
g8
sg17
Nsg18
S'views/pattern-library/sass/utilities.md'
p598
sg20
I01
sg21
Nsg22
g23
stp599
a(g8
S'views/pattern-library/sass/utilities.md|jinja|pandoc'
p600
g26
S'69a8e7c6d00b2ec673f99db63082c10a-002-jinja-pandoc'
p601
(dp602
g13
g14
sg15
Nsg16
g8
sg17
Nsg18
S'views/pattern-library/sass/utilities.html'
p603
sg20
I01
sg21
Nsg22
g23
stp604
asg31
(g8
g600
g26
g601
(dp605
g13
g14
sg15
Nsg16
g8
sg17
Nsg18
g603
sg20
I01
sg21
Nsg22
g23
stp606
sg15
S'Utilities'
p607
sg35
F1420332525.34044
sg36
F1420332525.2673481
sg37
(g8
S'views/pattern-library/sass/utilities.md'
p608
g595
S'69a8e7c6d00b2ec673f99db63082c10a-000'
p609
(dp610
g13
g14
sg15
Nsg16
g8
sg17
Nsg18
g608
sg20
Nsg21
Nsg22
g23
stp611
sg42
g43
sg44
F0.073091983795166016
ssS'doc:views/docs/htmlCodingStandard.md|jinja|pandoc'
p612
(dp613
g6
(lp614
(g8
S'views/docs/htmlCodingStandard.md|jinja'
p615
S'.md'
p616
S'ee43288a3694576ef6258ac28e3d7c9a-001-jinja'
p617
(dp618
g13
g14
sg15
Nsg16
g8
sg17
Nsg18
S'views/docs/htmlCodingStandard.md'
p619
sg20
I01
sg21
Nsg22
g23
stp620
a(g8
S'views/docs/htmlCodingStandard.md|jinja|pandoc'
p621
g26
S'ee43288a3694576ef6258ac28e3d7c9a-002-jinja-pandoc'
p622
(dp623
g13
g14
sg15
Nsg16
g8
sg17
Nsg18
S'views/docs/htmlCodingStandard.html'
p624
sg20
I01
sg21
Nsg22
g23
stp625
asg31
(g8
g621
g26
g622
(dp626
g13
g14
sg15
Nsg16
g8
sg17
Nsg18
g624
sg20
I01
sg21
Nsg22
g23
stp627
sg15
S'Html Coding Standard'
p628
sg35
F1420332523.762954
sg36
F1420332523.682781
sg37
(g8
S'views/docs/htmlCodingStandard.md'
p629
g616
S'ee43288a3694576ef6258ac28e3d7c9a-000'
p630
(dp631
g13
g14
sg15
Nsg16
g8
sg17
Nsg18
g629
sg20
Nsg21
Nsg22
g23
stp632
sg42
g43
sg44
F0.080173015594482422
ssS'doc:views/docs/gettingStarted.md|jinja|pandoc'
p633
(dp634
g6
(lp635
(g8
S'views/docs/gettingStarted.md|jinja'
p636
S'.md'
p637
S'7cc4fe185b40351e78878ab9eb9df132-001-jinja'
p638
(dp639
g13
g14
sg15
Nsg16
g8
sg17
Nsg18
S'views/docs/gettingStarted.md'
p640
sg20
I01
sg21
Nsg22
g23
stp641
a(g8
S'views/docs/gettingStarted.md|jinja|pandoc'
p642
g26
S'7cc4fe185b40351e78878ab9eb9df132-002-jinja-pandoc'
p643
(dp644
g13
g14
sg15
Nsg16
g8
sg17
Nsg18
S'views/docs/gettingStarted.html'
p645
sg20
I01
sg21
Nsg22
g23
stp646
asg31
(g8
g642
g26
g643
(dp647
g13
g14
sg15
Nsg16
g8
sg17
Nsg18
g645
sg20
I01
sg21
Nsg22
g23
stp648
sg15
S'Getting Started'
p649
sg35
F1420332525.1112001
sg36
F1420332525.0275071
sg37
(g8
S'views/docs/gettingStarted.md'
p650
g637
S'7cc4fe185b40351e78878ab9eb9df132-000'
p651
(dp652
g13
g14
sg15
Nsg16
g8
sg17
Nsg18
g650
sg20
Nsg21
Nsg22
g23
stp653
sg42
g43
sg44
F0.083693027496337891
sssS'filters_used'
p654
(lp655
S'jinja'
p656
aS'pandoc'
p657
aS'jinja'
p658
aS'pandoc'
p659
aS'jinja'
p660
aS'pandoc'
p661
aS'jinja'
p662
aS'pandoc'
p663
aS'jinja'
p664
aS'pandoc'
p665
aS'jinja'
p666
aS'pandoc'
p667
aS'jinja'
p668
aS'pandoc'
p669
aS'jinja'
p670
aS'pandoc'
p671
aS'jinja'
p672
aS'pandoc'
p673
aS'jinja'
p674
aS'pandoc'
p675
aS'jinja'
p676
aS'pandoc'
p677
aS'jinja'
p678
aS'pandoc'
p679
aS'jinja'
p680
aS'pandoc'
p681
aS'jinja'
p682
aS'pandoc'
p683
aS'jinja'
p684
aS'pandoc'
p685
aS'jinja'
p686
aS'pandoc'
p687
aS'jinja'
p688
aS'pandoc'
p689
aS'jinja'
p690
aS'pandoc'
p691
aS'jinja'
p692
aS'pandoc'
p693
aS'jinja'
p694
aS'pandoc'
p695
aS'jinja'
p696
aS'pandoc'
p697
aS'jinja'
p698
aS'pandoc'
p699
aS'jinja'
p700
aS'pandoc'
p701
aS'jinja'
p702
aS'pandoc'
p703
aS'jinja'
p704
aS'pandoc'
p705
aS'jinja'
p706
aS'pandoc'
p707
aS'jinja'
p708
aS'pandoc'
p709
aS'jinja'
p710
aS'pandoc'
p711
aS'jinja'
p712
aS'pandoc'
p713
aS'jinja'
p714
aS'pandoc'
p715
ag656
ag657
ag658
ag659
ag660
ag661
ag662
ag663
ag664
ag665
ag666
ag667
ag668
ag669
ag670
ag671
ag672
ag673
ag674
ag675
ag676
ag677
ag678
ag679
ag680
ag681
ag682
ag683
ag684
ag685
ag686
ag687
ag688
ag689
ag690
ag691
ag692
ag693
ag694
ag695
ag696
ag697
ag698
ag699
ag700
ag701
ag702
ag703
ag704
ag705
ag706
ag707
ag708
ag709
ag710
ag711
ag712
ag713
ag714
ag715
ag656
ag657
ag658
ag659
ag660
ag661
ag662
ag663
ag664
ag665
ag666
ag667
ag668
ag669
ag670
ag671
ag672
ag673
ag674
ag675
ag676
ag677
ag678
ag679
ag680
ag681
ag682
ag683
ag684
ag685
ag686
ag687
ag688
ag689
ag690
ag691
ag692
ag693
ag694
ag695
ag696
ag697
ag698
ag699
ag700
ag701
ag702
ag703
ag704
ag705
ag706
ag707
ag708
ag709
ag710
ag711
ag712
ag713
ag714
ag715
asS'uuid'
p716
S'4f93ee02-d8d5-498e-ae32-5240b841d76f'
p717
sS'doc_keys'
p718
(dp719
g475
S'doc:views/pattern-library/sass/colorpallet.md|jinja|pandoc'
p720
sg160
S'doc:views/docs/pe.md|jinja|pandoc'
p721
sg27
S'doc:views/pattern-library/sass/components.md|jinja|pandoc'
p722
sg244
S'doc:views/docs/addendum.md|jinja|pandoc'
p723
sg307
S'doc:views/docs/performanceTesting.md|jinja|pandoc'
p724
sg559
S'doc:views/pattern-library/sass/layout/breakpoints.md|jinja|pandoc'
p725
sg538
S'doc:views/docs/javascript/module-guide.md|jinja|pandoc'
p726
sg412
S'doc:views/docs/docs.md|jinja|pandoc'
p727
sg139
S'doc:views/docs/tests.md|jinja|pandoc'
p728
sg496
S'doc:views/docs/javascript/angular-styleguide.md|jinja|pandoc'
p729
sg55
S'doc:views/docs/javascript/file-folder-naming.md|jinja|pandoc'
p730
sg97
S'doc:views/pattern-library/sass/objects.md|jinja|pandoc'
p731
sg643
S'doc:views/docs/gettingStarted.md|jinja|pandoc'
p732
sg202
S'doc:views/pattern-library/sass/components/README.md|jinja|pandoc'
p733
sg433
S'doc:views/pattern-library/sass/layout/layout.md|jinja|pandoc'
p734
sg622
S'doc:views/docs/htmlCodingStandard.md|jinja|pandoc'
p735
sg391
S'doc:views/docs/javascript/build-tools-process.md|jinja|pandoc'
p736
sg454
S'doc:views/pattern-library/sass/index.md|jinja|pandoc'
p737
sg223
S'doc:views/docs/designPrinciples.md|jinja|pandoc'
p738
sg601
S'doc:views/pattern-library/sass/utilities.md|jinja|pandoc'
p739
sg517
S'doc:views/docs/architecture.md|jinja|pandoc'
p740
sg286
S'doc:views/docs/frontendOps.md|jinja|pandoc'
p741
sg76
S'doc:views/docs/stylesheetTesting.md|jinja|pandoc'
p742
sg349
S'doc:views/docs/README.md|jinja|pandoc'
p743
sg580
S'doc:views/docs/test.md|jinja|pandoc'
p744
sg370
S'doc:views/pattern-library/sass/main.scss.md|jinja|pandoc'
p745
sg181
S'doc:views/docs/javascript/troubleshooting.md|jinja|pandoc'
p746
sg118
S'doc:views/docs/archetypeModules.md|jinja|pandoc'
p747
sg328
S'doc:views/docs/stylesheetCodingStandard.md|jinja|pandoc'
p748
sg265
S'doc:views/pattern-library/sass/objects/README.md|jinja|pandoc'
p749
ss.